; Function Attrs: mustprogress uwtable
define hidden void @_ZN4cvc58internal24AnnotationProofGenerator9transformERKNS0_9TrustNodeEPNS0_9AnnotatorE(ptr noalias sret(%"class.cvc5::internal::TrustNode") align 8 %agg.result, ptr noundef nonnull align 8 dereferenceable(320) %this, ptr noundef nonnull align 8 dereferenceable(24) %trn, ptr noundef %a) local_unnamed_addr #3 align 2 personality ptr @__gxx_personality_v0 {
entry:
  %agg.tmp = alloca %"class.cvc5::internal::NodeTemplate", align 8
  call void @_ZNK4cvc58internal9TrustNode9getProvenEv(ptr nonnull sret(%"class.cvc5::internal::NodeTemplate") align 8 %agg.tmp, ptr noundef nonnull align 8 dereferenceable(24) %trn)
  %call = invoke noundef ptr @_ZNK4cvc58internal9TrustNode12getGeneratorEv(ptr noundef nonnull align 8 dereferenceable(24) %trn)
          to label %invoke.cont unwind label %lpad

invoke.cont:                                      ; preds = %entry
  %d_exps.i = getelementptr inbounds i8, ptr %this, i64 96
  %call.i3 = invoke noundef nonnull align 8 dereferenceable(88) ptr @_ZN4cvc57context9CDHashMapINS_8internal12NodeTemplateILb1EEESt4pairIPNS2_14ProofGeneratorEPNS2_9AnnotatorEESt4hashIS4_EEixERKS4_(ptr noundef nonnull align 8 dereferenceable(112) %d_exps.i, ptr noundef nonnull align 8 dereferenceable(8) %agg.tmp)
          to label %call.i.noexc unwind label %lpad

call.i.noexc:                                     ; preds = %invoke.cont
  %d_pScope.i.i.i.i = getelementptr inbounds i8, ptr %call.i3, i64 8
  %0 = load ptr, ptr %d_pScope.i.i.i.i, align 8
  %1 = load ptr, ptr %0, align 8
  %_M_finish.i.i.i.i.i.i.i.i = getelementptr inbounds i8, ptr %1, i64 16
  %2 = load ptr, ptr %_M_finish.i.i.i.i.i.i.i.i, align 8
  %add.ptr.i.i.i.i.i.i.i.i = getelementptr inbounds i8, ptr %2, i64 -8
  %3 = load ptr, ptr %add.ptr.i.i.i.i.i.i.i.i, align 8
  %cmp.i.i.i.i.i = icmp eq ptr %3, %0
  br i1 %cmp.i.i.i.i.i, label %invoke.cont2, label %if.then.i.i.i.i

if.then.i.i.i.i:                                  ; preds = %call.i.noexc
  invoke void @_ZN4cvc57context10ContextObj6updateEv(ptr noundef nonnull align 8 dereferenceable(40) %call.i3)
          to label %invoke.cont2 unwind label %lpad

invoke.cont2:                                     ; preds = %call.i.noexc, %if.then.i.i.i.i
  %second.i.i.i.i = getelementptr inbounds i8, ptr %call.i3, i64 48
  store ptr %call, ptr %second.i.i.i.i, align 8
  %second3.i.i.i.i = getelementptr inbounds i8, ptr %call.i3, i64 56
  store ptr %a, ptr %second3.i.i.i.i, align 8
  %4 = load ptr, ptr %agg.tmp, align 8
  %bf.load.i.i = load i64, ptr %4, align 8
  %5 = and i64 %bf.load.i.i, 1152920405095219200
  %cmp.not.i.i = icmp eq i64 %5, 1152920405095219200
  br i1 %cmp.not.i.i, label %_ZN4cvc58internal12NodeTemplateILb1EED2Ev.exit, label %if.then.i.i

if.then.i.i:                                      ; preds = %invoke.cont2
  %bf.value.i.i = add i64 %bf.load.i.i, 1152920405095219200
  %bf.shl.i.i = and i64 %bf.value.i.i, 1152920405095219200
  %bf.clear7.i.i = and i64 %bf.load.i.i, -1152920405095219201
  %bf.set.i.i = or disjoint i64 %bf.shl.i.i, %bf.clear7.i.i
  store i64 %bf.set.i.i, ptr %4, align 8
  %cmp12.i.i = icmp eq i64 %bf.shl.i.i, 0
  br i1 %cmp12.i.i, label %if.then13.i.i, label %_ZN4cvc58internal12NodeTemplateILb1EED2Ev.exit

if.then13.i.i:                                    ; preds = %if.then.i.i
  invoke void @_ZN4cvc58internal4expr9NodeValue15markForDeletionEv(ptr noundef nonnull align 8 dereferenceable(16) %4)
          to label %_ZN4cvc58internal12NodeTemplateILb1EED2Ev.exit unwind label %terminate.lpad.i

terminate.lpad.i:                                 ; preds = %if.then13.i.i
  %6 = landingpad { ptr, i32 }
          catch ptr null
  %7 = extractvalue { ptr, i32 } %6, 0
  call void @__clang_call_terminate(ptr %7) #15
  unreachable

_ZN4cvc58internal12NodeTemplateILb1EED2Ev.exit:   ; preds = %invoke.cont2, %if.then.i.i, %if.then13.i.i
  call void @_ZN4cvc58internal9TrustNode21mkReplaceGenTrustNodeERKS1_PNS0_14ProofGeneratorE(ptr sret(%"class.cvc5::internal::TrustNode") align 8 %agg.result, ptr noundef nonnull align 8 dereferenceable(24) %trn, ptr noundef nonnull %this)
  ret void

lpad:                                             ; preds = %if.then.i.i.i.i, %invoke.cont, %entry
  %8 = landingpad { ptr, i32 }
          cleanup
  call void @_ZN4cvc58internal12NodeTemplateILb1EED2Ev(ptr noundef nonnull align 8 dereferenceable(8) %agg.tmp) #14
  resume { ptr, i32 } %8
}